target datalayout = "e-m:e-p270:32:32-p271:32:32-p272:64:64-i64:64-i128:128-f80:128-n8:16:32:64-S128"
target triple = "x86_64-pc-linux-gnu"

@.str.9 = private unnamed_addr constant [5 x i32] [i32 46, i32 114, i32 97, i32 114, i32 0], align 4
@.str.10 = private unnamed_addr constant [5 x i32] [i32 46, i32 101, i32 120, i32 101, i32 0], align 4
@.str.11 = private unnamed_addr constant [5 x i32] [i32 46, i32 115, i32 102, i32 120, i32 0], align 4
@.str.12 = private unnamed_addr constant [3 x i32] [i32 48, i32 48, i32 0], align 4

; Function Attrs: mustprogress nounwind uwtable
define noundef zeroext i1 @_Z10IsDriveDivi(i32 noundef %0) #2 {
  %2 = alloca i32, align 4
  store i32 %0, ptr %2, align 4
  ret i1 false
}

; Function Attrs: mustprogress nounwind uwtable
define noundef zeroext i1 @_Z9IsPathDivi(i32 noundef %0) #2 {
  %2 = alloca i32, align 4
  store i32 %0, ptr %2, align 4
  %3 = load i32, ptr %2, align 4
  %4 = icmp eq i32 %3, 47
  ret i1 %4
}

; Function Attrs: mustprogress uwtable
define noundef ptr @_Z11PointToNamePKw(ptr noundef %0) #0 {
  %2 = alloca ptr, align 8
  %3 = alloca ptr, align 8
  %4 = alloca i32, align 4
  store ptr %0, ptr %3, align 8
  %5 = load ptr, ptr %3, align 8
  %6 = call i64 @wcslen(ptr noundef %5) #6
  %7 = trunc i64 %6 to i32
  %8 = sub nsw i32 %7, 1
  store i32 %8, ptr %4, align 4
  br label %9

9:                                                ; preds = %26, %1
  %10 = load i32, ptr %4, align 4
  %11 = icmp sge i32 %10, 0
  br i1 %11, label %12, label %29

12:                                               ; preds = %9
  %13 = load ptr, ptr %3, align 8
  %14 = load i32, ptr %4, align 4
  %15 = sext i32 %14 to i64
  %16 = getelementptr inbounds i32, ptr %13, i64 %15
  %17 = load i32, ptr %16, align 4
  %18 = call noundef zeroext i1 @_Z9IsPathDivi(i32 noundef %17)
  br i1 %18, label %19, label %25

19:                                               ; preds = %12
  %20 = load ptr, ptr %3, align 8
  %21 = load i32, ptr %4, align 4
  %22 = add nsw i32 %21, 1
  %23 = sext i32 %22 to i64
  %24 = getelementptr inbounds i32, ptr %20, i64 %23
  store ptr %24, ptr %2, align 8
  br label %45

25:                                               ; preds = %12
  br label %26

26:                                               ; preds = %25
  %27 = load i32, ptr %4, align 4
  %28 = add nsw i32 %27, -1
  store i32 %28, ptr %4, align 4
  br label %9, !llvm.loop !4

29:                                               ; preds = %9
  %30 = load ptr, ptr %3, align 8
  %31 = load i32, ptr %30, align 4
  %32 = icmp ne i32 %31, 0
  br i1 %32, label %33, label %41

33:                                               ; preds = %29
  %34 = load ptr, ptr %3, align 8
  %35 = getelementptr inbounds i32, ptr %34, i64 1
  %36 = load i32, ptr %35, align 4
  %37 = call noundef zeroext i1 @_Z10IsDriveDivi(i32 noundef %36)
  br i1 %37, label %38, label %41

38:                                               ; preds = %33
  %39 = load ptr, ptr %3, align 8
  %40 = getelementptr inbounds i32, ptr %39, i64 2
  br label %43

41:                                               ; preds = %33, %29
  %42 = load ptr, ptr %3, align 8
  br label %43

43:                                               ; preds = %41, %38
  %44 = phi ptr [ %40, %38 ], [ %42, %41 ]
  store ptr %44, ptr %2, align 8
  br label %45

45:                                               ; preds = %43, %19
  %46 = load ptr, ptr %2, align 8
  ret ptr %46
}

; Function Attrs: mustprogress uwtable
define noundef ptr @_Z6GetExtPKw(ptr noundef %0) #0 {
  %2 = alloca ptr, align 8
  store ptr %0, ptr %2, align 8
  %3 = load ptr, ptr %2, align 8
  %4 = icmp eq ptr %3, null
  br i1 %4, label %5, label %6

5:                                                ; preds = %1
  br label %10

6:                                                ; preds = %1
  %7 = load ptr, ptr %2, align 8
  %8 = call noundef ptr @_Z11PointToNamePKw(ptr noundef %7)
  %9 = call ptr @wcsrchr(ptr noundef %8, i32 noundef signext 46) #6
  br label %10

10:                                               ; preds = %6, %5
  %11 = phi ptr [ null, %5 ], [ %9, %6 ]
  ret ptr %11
}

; Function Attrs: mustprogress uwtable
define void @_Z14NextVolumeNamePwjb(ptr noundef %0, i32 noundef %1, i1 noundef zeroext %2) #0 {
  %4 = alloca ptr, align 8
  %5 = alloca i32, align 4
  %6 = alloca i8, align 1
  %7 = alloca ptr, align 8
  %8 = alloca ptr, align 8
  store ptr %0, ptr %4, align 8
  store i32 %1, ptr %5, align 4
  %9 = zext i1 %2 to i8
  store i8 %9, ptr %6, align 1
  %10 = load ptr, ptr %4, align 8
  %11 = call noundef ptr @_Z6GetExtPKw(ptr noundef %10)
  store ptr %11, ptr %7, align 8
  %12 = icmp eq ptr %11, null
  br i1 %12, label %13, label %19

13:                                               ; preds = %3
  %14 = load ptr, ptr %4, align 8
  %15 = load i32, ptr %5, align 4
  %16 = zext i32 %15 to i64
  call void @_Z8wcsncatzPwPKwm(ptr noundef %14, ptr noundef @.str.9, i64 noundef %16)
  %17 = load ptr, ptr %4, align 8
  %18 = call noundef ptr @_Z6GetExtPKw(ptr noundef %17)
  store ptr %18, ptr %7, align 8
  br label %44

19:                                               ; preds = %3
  %20 = load ptr, ptr %7, align 8
  %21 = getelementptr inbounds i32, ptr %20, i64 1
  %22 = load i32, ptr %21, align 4
  %23 = icmp eq i32 %22, 0
  br i1 %23, label %32, label %24

24:                                               ; preds = %19
  %25 = load ptr, ptr %7, align 8
  %26 = call noundef i32 @_Z8wcsicompPKwS0_(ptr noundef %25, ptr noundef @.str.10)
  %27 = icmp eq i32 %26, 0
  br i1 %27, label %32, label %28

28:                                               ; preds = %24
  %29 = load ptr, ptr %7, align 8
  %30 = call noundef i32 @_Z8wcsicompPKwS0_(ptr noundef %29, ptr noundef @.str.11)
  %31 = icmp eq i32 %30, 0
  br i1 %31, label %32, label %43

32:                                               ; preds = %28, %24, %19
  %33 = load ptr, ptr %7, align 8
  %34 = load i32, ptr %5, align 4
  %35 = zext i32 %34 to i64
  %36 = load ptr, ptr %7, align 8
  %37 = load ptr, ptr %4, align 8
  %38 = ptrtoint ptr %36 to i64
  %39 = ptrtoint ptr %37 to i64
  %40 = sub i64 %38, %39
  %41 = sdiv exact i64 %40, 4
  %42 = sub nsw i64 %35, %41
  call void @_Z8wcsncpyzPwPKwm(ptr noundef %33, ptr noundef @.str.9, i64 noundef %42)
  br label %43

43:                                               ; preds = %32, %28
  br label %44

44:                                               ; preds = %43, %13
  %45 = load ptr, ptr %7, align 8
  %46 = icmp eq ptr %45, null
  br i1 %46, label %56, label %47

47:                                               ; preds = %44
  %48 = load ptr, ptr %7, align 8
  %49 = load i32, ptr %48, align 4
  %50 = icmp ne i32 %49, 46
  br i1 %50, label %56, label %51

51:                                               ; preds = %47
  %52 = load ptr, ptr %7, align 8
  %53 = getelementptr inbounds i32, ptr %52, i64 1
  %54 = load i32, ptr %53, align 4
  %55 = icmp eq i32 %54, 0
  br i1 %55, label %56, label %58

56:                                               ; preds = %51, %47, %44
  %57 = load ptr, ptr %4, align 8
  store i32 0, ptr %57, align 4
  br label %154

58:                                               ; preds = %51
  %59 = load i8, ptr %6, align 1
  %60 = trunc i8 %59 to i1
  br i1 %60, label %102, label %61

61:                                               ; preds = %58
  %62 = load ptr, ptr %4, align 8
  %63 = call noundef ptr @_Z13GetVolNumPartPKw(ptr noundef %62)
  store ptr %63, ptr %7, align 8
  br label %64

64:                                               ; preds = %100, %61
  %65 = load ptr, ptr %7, align 8
  %66 = load i32, ptr %65, align 4
  %67 = add nsw i32 %66, 1
  store i32 %67, ptr %65, align 4
  %68 = icmp eq i32 %67, 58
  br i1 %68, label %69, label %101

69:                                               ; preds = %64
  %70 = load ptr, ptr %7, align 8
  store i32 48, ptr %70, align 4
  %71 = load ptr, ptr %7, align 8
  %72 = getelementptr inbounds i32, ptr %71, i32 -1
  store ptr %72, ptr %7, align 8
  %73 = load ptr, ptr %7, align 8
  %74 = load ptr, ptr %4, align 8
  %75 = icmp ult ptr %73, %74
  br i1 %75, label %80, label %76

76:                                               ; preds = %69
  %77 = load ptr, ptr %7, align 8
  %78 = load i32, ptr %77, align 4
  %79 = call noundef zeroext i1 @_Z7IsDigiti(i32 noundef %78)
  br i1 %79, label %100, label %80

80:                                               ; preds = %76, %69
  %81 = load ptr, ptr %4, align 8
  %82 = load ptr, ptr %4, align 8
  %83 = call i64 @wcslen(ptr noundef %82) #6
  %84 = getelementptr inbounds i32, ptr %81, i64 %83
  store ptr %84, ptr %8, align 8
  br label %85

85:                                               ; preds = %94, %80
  %86 = load ptr, ptr %8, align 8
  %87 = load ptr, ptr %7, align 8
  %88 = icmp ne ptr %86, %87
  br i1 %88, label %89, label %97

89:                                               ; preds = %85
  %90 = load ptr, ptr %8, align 8
  %91 = load i32, ptr %90, align 4
  %92 = load ptr, ptr %8, align 8
  %93 = getelementptr inbounds i32, ptr %92, i64 1
  store i32 %91, ptr %93, align 4
  br label %94

94:                                               ; preds = %89
  %95 = load ptr, ptr %8, align 8
  %96 = getelementptr inbounds i32, ptr %95, i32 -1
  store ptr %96, ptr %8, align 8
  br label %85, !llvm.loop !14

97:                                               ; preds = %85
  %98 = load ptr, ptr %7, align 8
  %99 = getelementptr inbounds i32, ptr %98, i64 1
  store i32 49, ptr %99, align 4
  br label %101

100:                                              ; preds = %76
  br label %64, !llvm.loop !15

101:                                              ; preds = %97, %64
  br label %154

102:                                              ; preds = %58
  %103 = load ptr, ptr %7, align 8
  %104 = getelementptr inbounds i32, ptr %103, i64 2
  %105 = load i32, ptr %104, align 4
  %106 = call noundef zeroext i1 @_Z7IsDigiti(i32 noundef %105)
  br i1 %106, label %107, label %112

107:                                              ; preds = %102
  %108 = load ptr, ptr %7, align 8
  %109 = getelementptr inbounds i32, ptr %108, i64 3
  %110 = load i32, ptr %109, align 4
  %111 = call noundef zeroext i1 @_Z7IsDigiti(i32 noundef %110)
  br i1 %111, label %125, label %112

112:                                              ; preds = %107, %102
  %113 = load ptr, ptr %7, align 8
  %114 = getelementptr inbounds i32, ptr %113, i64 2
  %115 = load i32, ptr %5, align 4
  %116 = zext i32 %115 to i64
  %117 = load ptr, ptr %7, align 8
  %118 = load ptr, ptr %4, align 8
  %119 = ptrtoint ptr %117 to i64
  %120 = ptrtoint ptr %118 to i64
  %121 = sub i64 %119, %120
  %122 = sdiv exact i64 %121, 4
  %123 = sub nsw i64 %116, %122
  %124 = sub nsw i64 %123, 2
  call void @_Z8wcsncpyzPwPKwm(ptr noundef %114, ptr noundef @.str.12, i64 noundef %124)
  br label %153

125:                                              ; preds = %107
  %126 = load ptr, ptr %7, align 8
  %127 = call i64 @wcslen(ptr noundef %126) #6
  %128 = sub i64 %127, 1
  %129 = load ptr, ptr %7, align 8
  %130 = getelementptr inbounds i32, ptr %129, i64 %128
  store ptr %130, ptr %7, align 8
  br label %131

131:                                              ; preds = %151, %125
  %132 = load ptr, ptr %7, align 8
  %133 = load i32, ptr %132, align 4
  %134 = add nsw i32 %133, 1
  store i32 %134, ptr %132, align 4
  %135 = icmp eq i32 %134, 58
  br i1 %135, label %136, label %152

136:                                              ; preds = %131
  %137 = load ptr, ptr %7, align 8
  %138 = load ptr, ptr %4, align 8
  %139 = icmp ule ptr %137, %138
  br i1 %139, label %145, label %140

140:                                              ; preds = %136
  %141 = load ptr, ptr %7, align 8
  %142 = getelementptr inbounds i32, ptr %141, i64 -1
  %143 = load i32, ptr %142, align 4
  %144 = icmp eq i32 %143, 46
  br i1 %144, label %145, label %147

145:                                              ; preds = %140, %136
  %146 = load ptr, ptr %7, align 8
  store i32 97, ptr %146, align 4
  br label %152

147:                                              ; preds = %140
  %148 = load ptr, ptr %7, align 8
  store i32 48, ptr %148, align 4
  %149 = load ptr, ptr %7, align 8
  %150 = getelementptr inbounds i32, ptr %149, i32 -1
  store ptr %150, ptr %7, align 8
  br label %151

151:                                              ; preds = %147
  br label %131, !llvm.loop !16

152:                                              ; preds = %145, %131
  br label %153

153:                                              ; preds = %152, %112
  br label %154

154:                                              ; preds = %153, %101, %56
  ret void
}