; Function Attrs: mustprogress uwtable
define void @_Z14NextVolumeNamePwjb(ptr noundef %0, i32 noundef %1, i1 noundef zeroext %2) local_unnamed_addr #3 {
  %4 = icmp eq ptr %0, null
  br i1 %4, label %_Z6GetExtPKw.exit54.thread57, label %6

_Z6GetExtPKw.exit54.thread57:                     ; preds = %3
  %5 = zext i32 %1 to i64
  tail call void @_Z8wcsncatzPwPKwm(ptr noundef null, ptr noundef nonnull @.str.9, i64 noundef %5)
  br label %59

6:                                                ; preds = %3
  %7 = tail call i64 @wcslen(ptr noundef nonnull readonly %0) #18
  %8 = and i64 %7, 4294967295
  br label %9

9:                                                ; preds = %12, %6
  %indvars.iv.i.i = phi i64 [ %13, %12 ], [ %8, %6 ]
  %10 = trunc nuw i64 %indvars.iv.i.i to i32
  %11 = icmp sgt i32 %10, 0
  br i1 %11, label %12, label %_Z6GetExtPKw.exit

12:                                               ; preds = %9
  %13 = add nsw i64 %indvars.iv.i.i, -1
  %14 = getelementptr inbounds nuw i32, ptr %0, i64 %13
  %15 = load i32, ptr %14, align 4
  %16 = icmp eq i32 %15, 47
  br i1 %16, label %17, label %9, !llvm.loop !4

17:                                               ; preds = %12
  %18 = getelementptr inbounds nuw i32, ptr %0, i64 %indvars.iv.i.i
  br label %_Z6GetExtPKw.exit

_Z6GetExtPKw.exit:                                ; preds = %9, %17
  %.011.i.i = phi ptr [ %18, %17 ], [ %0, %9 ]
  %19 = tail call ptr @wcsrchr(ptr noundef %.011.i.i, i32 noundef signext 46) #18
  %20 = icmp eq ptr %19, null
  br i1 %20, label %21, label %35

21:                                               ; preds = %_Z6GetExtPKw.exit
  %22 = zext i32 %1 to i64
  tail call void @_Z8wcsncatzPwPKwm(ptr noundef nonnull %0, ptr noundef nonnull @.str.9, i64 noundef %22)
  %23 = tail call i64 @wcslen(ptr noundef nonnull readonly %0) #18
  %24 = and i64 %23, 4294967295
  br label %25

25:                                               ; preds = %28, %21
  %indvars.iv.i.i51 = phi i64 [ %29, %28 ], [ %24, %21 ]
  %26 = trunc nuw i64 %indvars.iv.i.i51 to i32
  %27 = icmp sgt i32 %26, 0
  br i1 %27, label %28, label %_Z6GetExtPKw.exit54

28:                                               ; preds = %25
  %29 = add nsw i64 %indvars.iv.i.i51, -1
  %30 = getelementptr inbounds nuw i32, ptr %0, i64 %29
  %31 = load i32, ptr %30, align 4
  %32 = icmp eq i32 %31, 47
  br i1 %32, label %33, label %25, !llvm.loop !4

33:                                               ; preds = %28
  %34 = getelementptr inbounds nuw i32, ptr %0, i64 %indvars.iv.i.i51
  br label %_Z6GetExtPKw.exit54

35:                                               ; preds = %_Z6GetExtPKw.exit
  %36 = getelementptr inbounds nuw i8, ptr %19, i64 4
  %37 = load i32, ptr %36, align 4
  %38 = icmp eq i32 %37, 0
  br i1 %38, label %45, label %39

39:                                               ; preds = %35
  %40 = tail call noundef i32 @_Z8wcsicompPKwS0_(ptr noundef nonnull %19, ptr noundef nonnull @.str.10)
  %41 = icmp eq i32 %40, 0
  br i1 %41, label %45, label %42

42:                                               ; preds = %39
  %43 = tail call noundef i32 @_Z8wcsicompPKwS0_(ptr noundef nonnull %19, ptr noundef nonnull @.str.11)
  %44 = icmp eq i32 %43, 0
  br i1 %44, label %45, label %_Z6GetExtPKw.exit54.thread

45:                                               ; preds = %42, %39, %35
  %46 = zext i32 %1 to i64
  %47 = ptrtoint ptr %19 to i64
  %48 = ptrtoint ptr %0 to i64
  %49 = sub i64 %47, %48
  %50 = ashr exact i64 %49, 2
  %51 = sub nsw i64 %46, %50
  tail call void @_Z8wcsncpyzPwPKwm(ptr noundef nonnull %19, ptr noundef nonnull @.str.9, i64 noundef %51)
  br label %_Z6GetExtPKw.exit54.thread

_Z6GetExtPKw.exit54:                              ; preds = %25, %33
  %.011.i.i53 = phi ptr [ %34, %33 ], [ %0, %25 ]
  %52 = tail call ptr @wcsrchr(ptr noundef %.011.i.i53, i32 noundef signext 46) #18
  %53 = icmp eq ptr %52, null
  br i1 %53, label %59, label %_Z6GetExtPKw.exit54.thread

_Z6GetExtPKw.exit54.thread:                       ; preds = %42, %45, %_Z6GetExtPKw.exit54
  %.04556 = phi ptr [ %52, %_Z6GetExtPKw.exit54 ], [ %19, %45 ], [ %19, %42 ]
  %54 = load i32, ptr %.04556, align 4
  %.not = icmp eq i32 %54, 46
  br i1 %.not, label %55, label %59

55:                                               ; preds = %_Z6GetExtPKw.exit54.thread
  %56 = getelementptr inbounds nuw i8, ptr %.04556, i64 4
  %57 = load i32, ptr %56, align 4
  %58 = icmp eq i32 %57, 0
  br i1 %58, label %59, label %60

59:                                               ; preds = %_Z6GetExtPKw.exit54.thread57, %55, %_Z6GetExtPKw.exit54.thread, %_Z6GetExtPKw.exit54
  store i32 0, ptr %0, align 4
  br label %.loopexit

60:                                               ; preds = %55
  br i1 %2, label %79, label %61

61:                                               ; preds = %60
  %62 = tail call noundef ptr @_Z13GetVolNumPartPKw(ptr noundef nonnull %0)
  br label %63

63:                                               ; preds = %70, %61
  %.1 = phi ptr [ %62, %61 ], [ %68, %70 ]
  %64 = load i32, ptr %.1, align 4
  %65 = add nsw i32 %64, 1
  store i32 %65, ptr %.1, align 4
  %66 = icmp eq i32 %65, 58
  br i1 %66, label %67, label %.loopexit

67:                                               ; preds = %63
  store i32 48, ptr %.1, align 4
  %68 = getelementptr inbounds i8, ptr %.1, i64 -4
  %69 = icmp ult ptr %68, %0
  br i1 %69, label %73, label %70

70:                                               ; preds = %67
  %71 = load i32, ptr %68, align 4
  %72 = tail call noundef zeroext i1 @_Z7IsDigiti(i32 noundef %71)
  br i1 %72, label %63, label %73, !llvm.loop !14

73:                                               ; preds = %70, %67
  %74 = tail call i64 @wcslen(ptr noundef nonnull %0) #18
  %75 = getelementptr inbounds i32, ptr %0, i64 %74
  %.not4964 = icmp eq ptr %75, %68
  br i1 %.not4964, label %._crit_edge, label %.lr.ph

.lr.ph:                                           ; preds = %73, %.lr.ph
  %.065 = phi ptr [ %78, %.lr.ph ], [ %75, %73 ]
  %76 = load i32, ptr %.065, align 4
  %77 = getelementptr inbounds nuw i8, ptr %.065, i64 4
  store i32 %76, ptr %77, align 4
  %78 = getelementptr inbounds i8, ptr %.065, i64 -4
  %.not49 = icmp eq ptr %.065, %.1
  br i1 %.not49, label %._crit_edge, label %.lr.ph, !llvm.loop !15

._crit_edge:                                      ; preds = %.lr.ph, %73
  store i32 49, ptr %.1, align 4
  br label %.loopexit

79:                                               ; preds = %60
  %80 = getelementptr inbounds nuw i8, ptr %.04556, i64 8
  %81 = load i32, ptr %80, align 4
  %82 = tail call noundef zeroext i1 @_Z7IsDigiti(i32 noundef %81)
  br i1 %82, label %83, label %87

83:                                               ; preds = %79
  %84 = getelementptr inbounds nuw i8, ptr %.04556, i64 12
  %85 = load i32, ptr %84, align 4
  %86 = tail call noundef zeroext i1 @_Z7IsDigiti(i32 noundef %85)
  br i1 %86, label %95, label %87

87:                                               ; preds = %83, %79
  %88 = zext i32 %1 to i64
  %89 = ptrtoint ptr %.04556 to i64
  %90 = ptrtoint ptr %0 to i64
  %91 = sub i64 %89, %90
  %92 = ashr exact i64 %91, 2
  %93 = add nsw i64 %88, -2
  %94 = sub nsw i64 %93, %92
  tail call void @_Z8wcsncpyzPwPKwm(ptr noundef nonnull %80, ptr noundef nonnull @.str.12, i64 noundef %94)
  br label %.loopexit

95:                                               ; preds = %83
  %96 = tail call i64 @wcslen(ptr noundef nonnull %.04556) #18
  %97 = getelementptr i32, ptr %.04556, i64 %96
  %98 = getelementptr i8, ptr %97, i64 -4
  %99 = load i32, ptr %98, align 4
  %100 = add nsw i32 %99, 1
  store i32 %100, ptr %98, align 4
  %101 = icmp eq i32 %100, 58
  br i1 %101, label %.lr.ph68, label %.loopexit

.lr.ph68:                                         ; preds = %95, %107
  %.266 = phi ptr [ %103, %107 ], [ %98, %95 ]
  %.not50 = icmp ugt ptr %.266, %0
  br i1 %.not50, label %102, label %106

102:                                              ; preds = %.lr.ph68
  %103 = getelementptr inbounds i8, ptr %.266, i64 -4
  %104 = load i32, ptr %103, align 4
  %105 = icmp eq i32 %104, 46
  br i1 %105, label %106, label %107

106:                                              ; preds = %102, %.lr.ph68
  store i32 97, ptr %.266, align 4
  br label %.loopexit

107:                                              ; preds = %102
  store i32 48, ptr %.266, align 4
  %108 = add nsw i32 %104, 1
  store i32 %108, ptr %103, align 4
  %109 = icmp eq i32 %108, 58
  br i1 %109, label %.lr.ph68, label %.loopexit, !llvm.loop !16

.loopexit:                                        ; preds = %63, %107, %95, %87, %106, %._crit_edge, %59
  ret void
}